; Function Attrs: nounwind uwtable
define ptr @l___private_Lean_Data_Lsp_Utf16_0__String_utf16PosToCodepointPosFromAux(ptr noundef %0, ptr noundef %1, ptr noundef %2, ptr noundef %3) local_unnamed_addr #1 {
  br label %lean_dec.exit32

lean_dec.exit32:                                  ; preds = %lean_dec.exit32.backedge, %4
  %.028 = phi ptr [ %3, %4 ], [ %.028.be, %lean_dec.exit32.backedge ]
  %.026 = phi ptr [ %2, %4 ], [ %32, %lean_dec.exit32.backedge ]
  %.024 = phi ptr [ %1, %4 ], [ %.1.i50, %lean_dec.exit32.backedge ]
  %5 = ptrtoint ptr %.024 to i64
  %6 = and i64 %5, 1
  %.not = icmp eq i64 %6, 0
  br i1 %.not, label %lean_nat_eq.exit, label %7, !prof !11

7:                                                ; preds = %lean_dec.exit32
  %8 = icmp eq ptr %.024, inttoptr (i64 1 to ptr)
  br i1 %8, label %62, label %10

lean_nat_eq.exit:                                 ; preds = %lean_dec.exit32
  %9 = tail call zeroext i1 @lean_nat_big_eq(ptr noundef %.024, ptr noundef nonnull inttoptr (i64 1 to ptr)) #4
  br i1 %9, label %62, label %21

10:                                               ; preds = %7
  %11 = tail call i32 @lean_string_utf8_get(ptr noundef %0, ptr noundef %.026) #4
  %12 = icmp ugt i32 %11, 65535
  %13 = select i1 %12, i64 2, i64 1
  %14 = lshr i64 %5, 1
  %15 = icmp samesign ult i64 %14, %13
  br i1 %15, label %lean_dec.exit34, label %16

16:                                               ; preds = %10
  %17 = sub nuw nsw i64 %14, %13
  %18 = shl nuw i64 %17, 1
  %19 = or disjoint i64 %18, 1
  %20 = inttoptr i64 %19 to ptr
  br label %lean_dec.exit34

21:                                               ; preds = %lean_nat_eq.exit
  %22 = tail call i32 @lean_string_utf8_get(ptr noundef %0, ptr noundef %.026) #4
  %23 = icmp ugt i32 %22, 65535
  %24 = select i1 %23, ptr inttoptr (i64 5 to ptr), ptr inttoptr (i64 3 to ptr)
  %25 = tail call ptr @lean_nat_big_sub(ptr noundef %.024, ptr noundef nonnull %24) #4
  %26 = load i32, ptr %.024, align 4, !tbaa !4
  %27 = icmp sgt i32 %26, 1
  br i1 %27, label %28, label %30, !prof !9

28:                                               ; preds = %21
  %29 = add nsw i32 %26, -1
  store i32 %29, ptr %.024, align 4, !tbaa !4
  br label %lean_dec.exit34

30:                                               ; preds = %21
  %.not.i36 = icmp eq i32 %26, 0
  br i1 %.not.i36, label %lean_dec.exit34, label %31

31:                                               ; preds = %30
  tail call void @lean_dec_ref_cold(ptr noundef nonnull %.024) #4
  br label %lean_dec.exit34

lean_dec.exit34:                                  ; preds = %10, %16, %31, %30, %28
  %.1.i50 = phi ptr [ %25, %28 ], [ %25, %30 ], [ %25, %31 ], [ inttoptr (i64 1 to ptr), %10 ], [ %20, %16 ]
  %32 = tail call ptr @lean_string_utf8_next(ptr noundef %0, ptr noundef %.026) #4
  %33 = ptrtoint ptr %.026 to i64
  %34 = and i64 %33, 1
  %.not62 = icmp eq i64 %34, 0
  br i1 %.not62, label %35, label %lean_dec.exit33

35:                                               ; preds = %lean_dec.exit34
  %36 = load i32, ptr %.026, align 4, !tbaa !4
  %37 = icmp sgt i32 %36, 1
  br i1 %37, label %38, label %40, !prof !9

38:                                               ; preds = %35
  %39 = add nsw i32 %36, -1
  store i32 %39, ptr %.026, align 4, !tbaa !4
  br label %lean_dec.exit33

40:                                               ; preds = %35
  %.not.i38 = icmp eq i32 %36, 0
  br i1 %.not.i38, label %lean_dec.exit33, label %41

41:                                               ; preds = %40
  tail call void @lean_dec_ref_cold(ptr noundef nonnull %.026) #4
  br label %lean_dec.exit33

lean_dec.exit33:                                  ; preds = %41, %40, %38, %lean_dec.exit34
  %42 = ptrtoint ptr %.028 to i64
  %43 = and i64 %42, 1
  %.not63 = icmp eq i64 %43, 0
  br i1 %.not63, label %54, label %44, !prof !11

44:                                               ; preds = %lean_dec.exit33
  %45 = lshr i64 %42, 1
  %46 = add nuw i64 %45, 1
  %47 = icmp sgt i64 %46, -1
  br i1 %47, label %48, label %52, !prof !9

48:                                               ; preds = %44
  %49 = shl nuw i64 %46, 1
  %50 = or disjoint i64 %49, 1
  %51 = inttoptr i64 %50 to ptr
  br label %lean_dec.exit32.backedge

lean_dec.exit32.backedge:                         ; preds = %48, %52, %58, %60, %61
  %.028.be = phi ptr [ %55, %58 ], [ %55, %60 ], [ %55, %61 ], [ %53, %52 ], [ %51, %48 ]
  br label %lean_dec.exit32

52:                                               ; preds = %44
  %53 = tail call ptr @lean_big_usize_to_nat(i64 noundef range(i64 0, -1) %46) #4
  br label %lean_dec.exit32.backedge

54:                                               ; preds = %lean_dec.exit33
  %55 = tail call ptr @lean_nat_big_add(ptr noundef %.028, ptr noundef nonnull inttoptr (i64 3 to ptr)) #4
  %56 = load i32, ptr %.028, align 4, !tbaa !4
  %57 = icmp sgt i32 %56, 1
  br i1 %57, label %58, label %60, !prof !9

58:                                               ; preds = %54
  %59 = add nsw i32 %56, -1
  store i32 %59, ptr %.028, align 4, !tbaa !4
  br label %lean_dec.exit32.backedge

60:                                               ; preds = %54
  %.not.i40 = icmp eq i32 %56, 0
  br i1 %.not.i40, label %lean_dec.exit32.backedge, label %61

61:                                               ; preds = %60
  tail call void @lean_dec_ref_cold(ptr noundef nonnull %.028) #4
  br label %lean_dec.exit32.backedge

62:                                               ; preds = %7, %lean_nat_eq.exit
  %63 = ptrtoint ptr %.026 to i64
  %64 = and i64 %63, 1
  %.not61 = icmp eq i64 %64, 0
  br i1 %.not61, label %65, label %lean_dec.exit31

65:                                               ; preds = %62
  %66 = load i32, ptr %.026, align 4, !tbaa !4
  %67 = icmp sgt i32 %66, 1
  br i1 %67, label %68, label %70, !prof !9

68:                                               ; preds = %65
  %69 = add nsw i32 %66, -1
  store i32 %69, ptr %.026, align 4, !tbaa !4
  br label %lean_dec.exit31

70:                                               ; preds = %65
  %.not.i42 = icmp eq i32 %66, 0
  br i1 %.not.i42, label %lean_dec.exit31, label %71

71:                                               ; preds = %70
  tail call void @lean_dec_ref_cold(ptr noundef nonnull %.026) #4
  br label %lean_dec.exit31

lean_dec.exit31:                                  ; preds = %71, %70, %68, %62
  br i1 %.not, label %72, label %79

72:                                               ; preds = %lean_dec.exit31
  %73 = load i32, ptr %.024, align 4, !tbaa !4
  %74 = icmp sgt i32 %73, 1
  br i1 %74, label %75, label %77, !prof !9

75:                                               ; preds = %72
  %76 = add nsw i32 %73, -1
  store i32 %76, ptr %.024, align 4, !tbaa !4
  br label %79

77:                                               ; preds = %72
  %.not.i44 = icmp eq i32 %73, 0
  br i1 %.not.i44, label %79, label %78

78:                                               ; preds = %77
  tail call void @lean_dec_ref_cold(ptr noundef nonnull %.024) #4
  br label %79

79:                                               ; preds = %78, %77, %75, %lean_dec.exit31
  ret ptr %.028
}